; Function Attrs: noinline nounwind uwtable
define internal fastcc ptr @mi_heap_malloc_zero_aligned_at_generic(ptr noundef %0, i64 noundef %1, i64 noundef %2, i64 noundef %3, i1 noundef zeroext %4) unnamed_addr #2 {
  %6 = icmp ugt i64 %1, 281474976579584
  br i1 %6, label %23, label %7, !prof !17

7:                                                ; preds = %5
  %8 = icmp ne i64 %3, 0
  %9 = icmp ugt i64 %2, %1
  %or.cond = or i1 %9, %8
  br i1 %or.cond, label %mi_malloc_is_naturally_aligned.exit.thread21, label %10

10:                                               ; preds = %7
  %11 = icmp samesign ult i64 %2, 17
  br i1 %11, label %.mi_malloc_is_naturally_aligned.exit.thread_crit_edge, label %mi_malloc_is_naturally_aligned.exit

.mi_malloc_is_naturally_aligned.exit.thread_crit_edge: ; preds = %10
  %.pre = add nsw i64 %2, -1
  br label %mi_malloc_is_naturally_aligned.exit.thread

mi_malloc_is_naturally_aligned.exit:              ; preds = %10
  %12 = tail call i64 @mi_good_size(i64 noundef range(i64 0, 281474976579585) %1) #8
  %13 = icmp ult i64 %12, 131073
  %14 = add nsw i64 %2, -1
  %15 = and i64 %12, %14
  %16 = icmp eq i64 %15, 0
  %17 = select i1 %13, i1 %16, i1 false
  br i1 %17, label %mi_malloc_is_naturally_aligned.exit.thread, label %mi_malloc_is_naturally_aligned.exit.thread21

mi_malloc_is_naturally_aligned.exit.thread:       ; preds = %.mi_malloc_is_naturally_aligned.exit.thread_crit_edge, %mi_malloc_is_naturally_aligned.exit
  %.pre-phi = phi i64 [ %.pre, %.mi_malloc_is_naturally_aligned.exit.thread_crit_edge ], [ %14, %mi_malloc_is_naturally_aligned.exit ]
  %18 = tail call ptr @_mi_heap_malloc_zero(ptr noundef %0, i64 noundef range(i64 -1, 281474993356800) %1, i1 noundef zeroext %4) #8
  %19 = ptrtoint ptr %18 to i64
  %20 = and i64 %.pre-phi, %19
  %21 = icmp eq i64 %20, 0
  br i1 %21, label %23, label %.thread, !prof !4

.thread:                                          ; preds = %mi_malloc_is_naturally_aligned.exit.thread
  tail call void @mi_free(ptr noundef %18) #8
  br label %mi_malloc_is_naturally_aligned.exit.thread21

mi_malloc_is_naturally_aligned.exit.thread21:     ; preds = %.thread, %mi_malloc_is_naturally_aligned.exit, %7
  %22 = tail call fastcc ptr @mi_heap_malloc_zero_aligned_at_overalloc(ptr noundef %0, i64 noundef %1, i64 noundef %2, i64 noundef %3, i1 noundef zeroext %4) #9
  br label %23

23:                                               ; preds = %mi_malloc_is_naturally_aligned.exit.thread, %5, %mi_malloc_is_naturally_aligned.exit.thread21
  %.018 = phi ptr [ %22, %mi_malloc_is_naturally_aligned.exit.thread21 ], [ null, %5 ], [ %18, %mi_malloc_is_naturally_aligned.exit.thread ]
  ret ptr %.018
}